; Function Attrs: mustprogress nounwind uwtable
define dso_local noundef zeroext i1 @_ZN4llvm6detailleERKNS0_16SlowDynamicAPIntEl(ptr noundef nonnull align 8 dereferenceable(16) %0, i64 noundef %1) local_unnamed_addr #1 {
  %3 = alloca %"class.llvm::detail::SlowDynamicAPInt", align 8
  call void @_ZN4llvm6detail16SlowDynamicAPIntC1El(ptr noundef nonnull align 8 dereferenceable(16) %3, i64 noundef %1) #9
  %4 = call noundef zeroext i1 @_ZNK4llvm6detail16SlowDynamicAPIntleERKS1_(ptr noundef nonnull align 8 dereferenceable(16) %0, ptr noundef nonnull align 8 dereferenceable(16) %3)
  %5 = getelementptr inbounds nuw i8, ptr %3, i64 8
  %6 = load i32, ptr %5, align 8
  %7 = icmp ugt i32 %6, 64
  br i1 %7, label %8, label %_ZN4llvm6detail16SlowDynamicAPIntD2Ev.exit

8:                                                ; preds = %2
  %9 = load ptr, ptr %3, align 8
  %10 = icmp eq ptr %9, null
  br i1 %10, label %_ZN4llvm6detail16SlowDynamicAPIntD2Ev.exit, label %11

11:                                               ; preds = %8
  call void @_ZdaPv(ptr noundef nonnull %9) #10
  br label %_ZN4llvm6detail16SlowDynamicAPIntD2Ev.exit

_ZN4llvm6detail16SlowDynamicAPIntD2Ev.exit:       ; preds = %2, %8, %11
  ret i1 %4
}